target datalayout = "e-m:e-p270:32:32-p271:32:32-p272:64:64-i64:64-i128:128-f80:128-n8:16:32:64-S128"
target triple = "x86_64-pc-linux-gnu"

%struct.metachain = type { ptr, i64, i64, i64, i64 }

; Function Attrs: nounwind uwtable
define internal i32 @print_chain(ptr noundef %0, ptr noundef %1, i64 noundef %2) #0 {
  %4 = alloca ptr, align 8
  %5 = alloca ptr, align 8
  %6 = alloca i64, align 8
  %7 = alloca i64, align 8
  %8 = alloca i64, align 8
  %9 = alloca i64, align 8
  store ptr %0, ptr %4, align 8
  store ptr %1, ptr %5, align 8
  store i64 %2, ptr %6, align 8
  store i64 0, ptr %8, align 8
  store i64 0, ptr %7, align 8
  br label %10

10:                                               ; preds = %54, %3
  %11 = load i64, ptr %7, align 8
  %12 = load ptr, ptr %4, align 8
  %13 = getelementptr inbounds %struct.metachain, ptr %12, i32 0, i32 4
  %14 = load i64, ptr %13, align 8
  %15 = sub i64 %14, 1
  %16 = icmp ult i64 %11, %15
  br i1 %16, label %17, label %57

17:                                               ; preds = %10
  %18 = load ptr, ptr %4, align 8
  %19 = getelementptr inbounds %struct.metachain, ptr %18, i32 0, i32 0
  %20 = load ptr, ptr %19, align 8
  %21 = load i64, ptr %7, align 8
  %22 = getelementptr inbounds ptr, ptr %20, i64 %21
  %23 = load ptr, ptr %22, align 8
  %24 = call i64 @strlen(ptr noundef %23) #11
  store i64 %24, ptr %9, align 8
  %25 = load i64, ptr %8, align 8
  %26 = icmp ne i64 %25, 0
  br i1 %26, label %27, label %32

27:                                               ; preds = %17
  %28 = load ptr, ptr %5, align 8
  %29 = load i64, ptr %8, align 8
  %30 = add i64 %29, 1
  store i64 %30, ptr %8, align 8
  %31 = getelementptr inbounds i8, ptr %28, i64 %29
  store i8 33, ptr %31, align 1
  br label %32

32:                                               ; preds = %27, %17
  %33 = load i64, ptr %9, align 8
  %34 = load i64, ptr %8, align 8
  %35 = add i64 %33, %34
  %36 = add i64 %35, 2
  %37 = load i64, ptr %6, align 8
  %38 = icmp ugt i64 %36, %37
  br i1 %38, label %39, label %40

39:                                               ; preds = %32
  br label %57

40:                                               ; preds = %32
  %41 = load ptr, ptr %5, align 8
  %42 = load i64, ptr %8, align 8
  %43 = getelementptr inbounds i8, ptr %41, i64 %42
  %44 = load ptr, ptr %4, align 8
  %45 = getelementptr inbounds %struct.metachain, ptr %44, i32 0, i32 0
  %46 = load ptr, ptr %45, align 8
  %47 = load i64, ptr %7, align 8
  %48 = getelementptr inbounds ptr, ptr %46, i64 %47
  %49 = load ptr, ptr %48, align 8
  %50 = load i64, ptr %9, align 8
  call void @llvm.memcpy.p0.p0.i64(ptr align 1 %43, ptr align 1 %49, i64 %50, i1 false)
  %51 = load i64, ptr %9, align 8
  %52 = load i64, ptr %8, align 8
  %53 = add i64 %52, %51
  store i64 %53, ptr %8, align 8
  br label %54

54:                                               ; preds = %40
  %55 = load i64, ptr %7, align 8
  %56 = add i64 %55, 1
  store i64 %56, ptr %7, align 8
  br label %10

57:                                               ; preds = %39, %10
  %58 = load ptr, ptr %5, align 8
  %59 = load i64, ptr %8, align 8
  %60 = getelementptr inbounds i8, ptr %58, i64 %59
  store i8 0, ptr %60, align 1
  %61 = load ptr, ptr %5, align 8
  %62 = load i64, ptr %6, align 8
  %63 = sub i64 %62, 1
  %64 = getelementptr inbounds i8, ptr %61, i64 %63
  store i8 0, ptr %64, align 1
  %65 = load i64, ptr %7, align 8
  %66 = load ptr, ptr %4, align 8
  %67 = getelementptr inbounds %struct.metachain, ptr %66, i32 0, i32 4
  %68 = load i64, ptr %67, align 8
  %69 = sub i64 %68, 1
  %70 = icmp eq i64 %65, %69
  %71 = select i1 %70, i32 0, i32 1
  ret i32 %71
}