; Function Attrs: nofree nounwind memory(readwrite, inaccessiblemem: none) uwtable
define internal fastcc i32 @print_chain(ptr nocapture noundef readonly %0, ptr nocapture noundef writeonly %1) unnamed_addr #13 {
  %3 = getelementptr inbounds i8, ptr %0, i64 32
  %4 = load i64, ptr %3, align 8
  %.not30 = icmp eq i64 %4, 1
  br i1 %.not30, label %._crit_edge, label %.lr.ph

.lr.ph:                                           ; preds = %2, %16
  %.025 = phi i64 [ %21, %16 ], [ 0, %2 ]
  %.02324 = phi i64 [ %13, %16 ], [ 0, %2 ]
  %5 = load ptr, ptr %0, align 8
  %6 = getelementptr inbounds ptr, ptr %5, i64 %.025
  %7 = load ptr, ptr %6, align 8
  %8 = tail call i64 @strlen(ptr noundef nonnull dereferenceable(1) %7) #22
  %.not = icmp eq i64 %.02324, 0
  br i1 %.not, label %12, label %9

9:                                                ; preds = %.lr.ph
  %10 = add i64 %.02324, 1
  %11 = getelementptr inbounds i8, ptr %1, i64 %.02324
  store i8 33, ptr %11, align 1
  br label %12

12:                                               ; preds = %9, %.lr.ph
  %.1 = phi i64 [ %10, %9 ], [ 0, %.lr.ph ]
  %13 = add i64 %.1, %8
  %14 = add i64 %13, -127
  %15 = icmp ult i64 %14, -129
  br i1 %15, label %._crit_edge, label %16

16:                                               ; preds = %12
  %17 = getelementptr inbounds i8, ptr %1, i64 %.1
  %18 = load ptr, ptr %0, align 8
  %19 = getelementptr inbounds ptr, ptr %18, i64 %.025
  %20 = load ptr, ptr %19, align 8
  tail call void @llvm.memcpy.p0.p0.i64(ptr align 1 %17, ptr align 1 %20, i64 %8, i1 false)
  %21 = add nuw i64 %.025, 1
  %22 = load i64, ptr %3, align 8
  %23 = add i64 %22, -1
  %24 = icmp ult i64 %21, %23
  br i1 %24, label %.lr.ph, label %._crit_edge

._crit_edge:                                      ; preds = %16, %12, %2
  %.0.lcssa = phi i64 [ 0, %2 ], [ %.025, %12 ], [ %21, %16 ]
  %.2 = phi i64 [ 0, %2 ], [ %.1, %12 ], [ %13, %16 ]
  %25 = getelementptr inbounds i8, ptr %1, i64 %.2
  store i8 0, ptr %25, align 1
  %26 = getelementptr inbounds i8, ptr %1, i64 127
  store i8 0, ptr %26, align 1
  %27 = load i64, ptr %3, align 8
  %28 = add i64 %27, -1
  %29 = icmp ne i64 %.0.lcssa, %28
  %30 = zext i1 %29 to i32
  ret i32 %30
}